; Function Attrs: nounwind uwtable
define internal fastcc void @Gia_ManExtract_rec(ptr noundef %0, ptr noundef %1, ptr noundef %2) unnamed_addr #0 {
  %.val = load i64, ptr %1, align 4
  %4 = and i64 %.val, 2147483648
  %.not.i = icmp ne i64 %4, 0
  %5 = and i64 %.val, 536870911
  %6 = icmp eq i64 %5, 536870911
  %narrow.i.not = or i1 %.not.i, %6
  br i1 %narrow.i.not, label %65, label %7

7:                                                ; preds = %3
  %8 = getelementptr inbounds nuw i8, ptr %0, i64 616
  %9 = load ptr, ptr %8, align 8, !tbaa !92
  %10 = getelementptr i8, ptr %0, i64 32
  %.val.i = load ptr, ptr %10, align 8, !tbaa !71
  %11 = ptrtoint ptr %1 to i64
  %12 = ptrtoint ptr %.val.i to i64
  %13 = sub i64 %11, %12
  %14 = sdiv exact i64 %13, 12
  %sext.i = shl i64 %14, 32
  %15 = ashr exact i64 %sext.i, 30
  %16 = getelementptr inbounds i8, ptr %9, i64 %15
  %17 = load i32, ptr %16, align 4, !tbaa !44
  %18 = getelementptr inbounds nuw i8, ptr %0, i64 176
  %19 = load i32, ptr %18, align 8, !tbaa !93
  %.not = icmp eq i32 %17, %19
  br i1 %.not, label %65, label %20

20:                                               ; preds = %7
  store i32 %19, ptr %16, align 4, !tbaa !44
  %21 = load i64, ptr %1, align 4
  %22 = and i64 %21, 536870911
  %23 = sub nsw i64 0, %22
  %24 = getelementptr inbounds %struct.Gia_Obj_t_, ptr %1, i64 %23
  tail call fastcc void @Gia_ManExtract_rec(ptr noundef nonnull %0, ptr noundef nonnull %24, ptr noundef %2)
  %25 = load i64, ptr %1, align 4
  %26 = lshr i64 %25, 32
  %27 = and i64 %26, 536870911
  %28 = sub nsw i64 0, %27
  %29 = getelementptr inbounds %struct.Gia_Obj_t_, ptr %1, i64 %28
  tail call fastcc void @Gia_ManExtract_rec(ptr noundef nonnull %0, ptr noundef nonnull %29, ptr noundef %2)
  %.val15 = load ptr, ptr %10, align 8, !tbaa !71
  %30 = ptrtoint ptr %.val15 to i64
  %31 = sub i64 %11, %30
  %32 = sdiv exact i64 %31, 12
  %33 = trunc i64 %32 to i32
  %34 = getelementptr inbounds nuw i8, ptr %2, i64 4
  %35 = load i32, ptr %34, align 4, !tbaa !3
  %36 = load i32, ptr %2, align 8, !tbaa !33
  %37 = icmp eq i32 %35, %36
  br i1 %37, label %38, label %.Vec_IntGrow.exit10_crit_edge.i

.Vec_IntGrow.exit10_crit_edge.i:                  ; preds = %20
  %.phi.trans.insert.i = getelementptr inbounds nuw i8, ptr %2, i64 8
  %.pre.i = load ptr, ptr %.phi.trans.insert.i, align 8, !tbaa !34
  br label %Vec_IntPush.exit

38:                                               ; preds = %20
  %39 = icmp slt i32 %35, 16
  br i1 %39, label %40, label %48

40:                                               ; preds = %38
  %41 = getelementptr inbounds nuw i8, ptr %2, i64 8
  %42 = load ptr, ptr %41, align 8, !tbaa !34
  %.not9.i.i = icmp eq ptr %42, null
  br i1 %.not9.i.i, label %45, label %43

43:                                               ; preds = %40
  %44 = tail call dereferenceable_or_null(64) ptr @realloc(ptr noundef nonnull %42, i64 noundef 64) #26
  br label %Vec_IntGrow.exit.i

45:                                               ; preds = %40
  %46 = tail call noalias dereferenceable_or_null(64) ptr @malloc(i64 noundef 64) #25
  br label %Vec_IntGrow.exit.i

Vec_IntGrow.exit.i:                               ; preds = %45, %43
  %47 = phi ptr [ %44, %43 ], [ %46, %45 ]
  store ptr %47, ptr %41, align 8, !tbaa !34
  store i32 16, ptr %2, align 8, !tbaa !33
  br label %Vec_IntPush.exit

48:                                               ; preds = %38
  %49 = shl nuw nsw i32 %35, 1
  %50 = getelementptr inbounds nuw i8, ptr %2, i64 8
  %51 = load ptr, ptr %50, align 8, !tbaa !34
  %.not9.i9.i = icmp eq ptr %51, null
  %52 = zext nneg i32 %49 to i64
  %53 = shl nuw nsw i64 %52, 2
  br i1 %.not9.i9.i, label %56, label %54

54:                                               ; preds = %48
  %55 = tail call ptr @realloc(ptr noundef nonnull %51, i64 noundef %53) #26
  br label %58

56:                                               ; preds = %48
  %57 = tail call noalias ptr @malloc(i64 noundef %53) #25
  br label %58

58:                                               ; preds = %56, %54
  %59 = phi ptr [ %55, %54 ], [ %57, %56 ]
  store ptr %59, ptr %50, align 8, !tbaa !34
  store i32 %49, ptr %2, align 8, !tbaa !33
  br label %Vec_IntPush.exit

Vec_IntPush.exit:                                 ; preds = %.Vec_IntGrow.exit10_crit_edge.i, %Vec_IntGrow.exit.i, %58
  %60 = phi ptr [ %.pre.i, %.Vec_IntGrow.exit10_crit_edge.i ], [ %59, %58 ], [ %47, %Vec_IntGrow.exit.i ]
  %61 = load i32, ptr %34, align 4, !tbaa !3
  %62 = add nsw i32 %61, 1
  store i32 %62, ptr %34, align 4, !tbaa !3
  %63 = sext i32 %61 to i64
  %64 = getelementptr inbounds i32, ptr %60, i64 %63
  store i32 %33, ptr %64, align 4, !tbaa !44
  br label %65

65:                                               ; preds = %7, %3, %Vec_IntPush.exit
  ret void
}